target datalayout = "e-m:e-p270:32:32-p271:32:32-p272:64:64-i64:64-i128:128-f80:128-n8:16:32:64-S128"
target triple = "x86_64-pc-linux-gnu"

%"class.ade::Node" = type { %"class.std::enable_shared_from_this", ptr, %"class.std::vector", %"class.std::vector" }
%"class.std::enable_shared_from_this" = type { %"class.std::weak_ptr" }
%"class.std::weak_ptr" = type { %"class.std::__weak_ptr" }
%"class.std::__weak_ptr" = type { ptr, %"class.std::__weak_count" }
%"class.std::__weak_count" = type { ptr }
%"class.std::vector" = type { %"struct.std::_Vector_base" }
%"struct.std::_Vector_base" = type { %"struct.std::_Vector_base<ade::Edge *, std::allocator<ade::Edge *>>::_Vector_impl" }
%"struct.std::_Vector_base<ade::Edge *, std::allocator<ade::Edge *>>::_Vector_impl" = type { %"struct.std::_Vector_base<ade::Edge *, std::allocator<ade::Edge *>>::_Vector_impl_data" }
%"struct.std::_Vector_base<ade::Edge *, std::allocator<ade::Edge *>>::_Vector_impl_data" = type { ptr, ptr, ptr }
%"class.__gnu_cxx::__normal_iterator" = type { ptr }
%"struct.ade::util::Range::MapRange" = type <{ %"struct.ade::util::Range::IterRange", [8 x i8] }>
%"struct.ade::util::Range::IterRange" = type { %"class.__gnu_cxx::__normal_iterator", %"class.__gnu_cxx::__normal_iterator" }
%"struct.ade::Node::HandleMapper" = type { i8 }
%"struct.ade::util::Range::MapRange.49" = type { %"struct.ade::util::Range::MapRange", [8 x i8] }
%"struct.ade::Node::OutEdgeMapper" = type { i8 }

; Function Attrs: mustprogress nounwind uwtable
define linkonce_odr hidden void @_ZN9__gnu_cxx17__normal_iteratorIPPN3ade4EdgeESt6vectorIS3_SaIS3_EEEC2ERKS4_(ptr noundef nonnull align 8 dereferenceable(8) %0, ptr noundef nonnull align 8 dereferenceable(8) %1) unnamed_addr #0 comdat align 2 {
  %3 = alloca ptr, align 8
  %4 = alloca ptr, align 8
  store ptr %0, ptr %3, align 8, !tbaa !40
  store ptr %1, ptr %4, align 8, !tbaa !91
  %5 = load ptr, ptr %3, align 8
  %6 = getelementptr inbounds nuw %"class.__gnu_cxx::__normal_iterator", ptr %5, i32 0, i32 0
  %7 = load ptr, ptr %4, align 8, !tbaa !91
  %8 = load ptr, ptr %7, align 8, !tbaa !29
  store ptr %8, ptr %6, align 8, !tbaa !42
  ret void
}

; Function Attrs: mustprogress nounwind uwtable
define linkonce_odr hidden ptr @_ZNSt6vectorIPN3ade4EdgeESaIS2_EE3endEv(ptr noundef nonnull align 8 dereferenceable(24) %0) #0 comdat align 2 {
  %2 = alloca %"class.__gnu_cxx::__normal_iterator", align 8
  %3 = alloca ptr, align 8
  store ptr %0, ptr %3, align 8, !tbaa !25
  %4 = load ptr, ptr %3, align 8
  %5 = getelementptr inbounds nuw %"struct.std::_Vector_base", ptr %4, i32 0, i32 0
  %6 = getelementptr inbounds nuw %"struct.std::_Vector_base<ade::Edge *, std::allocator<ade::Edge *>>::_Vector_impl_data", ptr %5, i32 0, i32 1
  call void @_ZN9__gnu_cxx17__normal_iteratorIPPN3ade4EdgeESt6vectorIS3_SaIS3_EEEC2ERKS4_(ptr noundef nonnull align 8 dereferenceable(8) %2, ptr noundef nonnull align 8 dereferenceable(8) %6) #17
  %7 = getelementptr inbounds nuw %"class.__gnu_cxx::__normal_iterator", ptr %2, i32 0, i32 0
  %8 = load ptr, ptr %7, align 8
  ret ptr %8
}

; Function Attrs: mustprogress nounwind uwtable
define linkonce_odr hidden ptr @_ZNSt6vectorIPN3ade4EdgeESaIS2_EE5beginEv(ptr noundef nonnull align 8 dereferenceable(24) %0) #0 comdat align 2 {
  %2 = alloca %"class.__gnu_cxx::__normal_iterator", align 8
  %3 = alloca ptr, align 8
  store ptr %0, ptr %3, align 8, !tbaa !25
  %4 = load ptr, ptr %3, align 8
  %5 = getelementptr inbounds nuw %"struct.std::_Vector_base", ptr %4, i32 0, i32 0
  %6 = getelementptr inbounds nuw %"struct.std::_Vector_base<ade::Edge *, std::allocator<ade::Edge *>>::_Vector_impl_data", ptr %5, i32 0, i32 0
  call void @_ZN9__gnu_cxx17__normal_iteratorIPPN3ade4EdgeESt6vectorIS3_SaIS3_EEEC2ERKS4_(ptr noundef nonnull align 8 dereferenceable(8) %2, ptr noundef nonnull align 8 dereferenceable(8) %6) #17
  %7 = getelementptr inbounds nuw %"class.__gnu_cxx::__normal_iterator", ptr %2, i32 0, i32 0
  %8 = load ptr, ptr %7, align 8
  ret ptr %8
}

; Function Attrs: mustprogress nounwind uwtable
define linkonce_odr hidden void @_ZN3ade4util5Range8MapRangeINS1_9IterRangeIN9__gnu_cxx17__normal_iteratorIPPNS_4EdgeESt6vectorIS7_SaIS7_EEEESC_EENS_4Node12HandleMapperEEC2ISD_SF_EEOT_OT0_(ptr noundef nonnull align 8 dereferenceable(17) %0, ptr noundef nonnull align 8 dereferenceable(16) %1, ptr noundef nonnull align 1 dereferenceable(1) %2) unnamed_addr #0 comdat align 2 {
  %4 = alloca ptr, align 8
  %5 = alloca ptr, align 8
  %6 = alloca ptr, align 8
  store ptr %0, ptr %4, align 8, !tbaa !49
  store ptr %1, ptr %5, align 8, !tbaa !45
  store ptr %2, ptr %6, align 8, !tbaa !53
  %7 = load ptr, ptr %4, align 8
  %8 = getelementptr inbounds nuw %"struct.ade::util::Range::MapRange", ptr %7, i32 0, i32 0
  %9 = load ptr, ptr %5, align 8, !tbaa !45
  call void @llvm.memcpy.p0.p0.i64(ptr align 8 %8, ptr align 8 %9, i64 16, i1 false), !tbaa.struct !106
  ret void
}

; Function Attrs: inlinehint mustprogress nounwind uwtable
define linkonce_odr hidden ptr @_ZSt3endISt6vectorIPN3ade4EdgeESaIS3_EEEDTcldtfp_3endEERT_(ptr noundef nonnull align 8 dereferenceable(24) %0) #4 comdat {
  %2 = alloca %"class.__gnu_cxx::__normal_iterator", align 8
  %3 = alloca ptr, align 8
  store ptr %0, ptr %3, align 8, !tbaa !25
  %4 = load ptr, ptr %3, align 8, !tbaa !25
  %5 = call ptr @_ZNSt6vectorIPN3ade4EdgeESaIS2_EE3endEv(ptr noundef nonnull align 8 dereferenceable(24) %4) #17
  %6 = getelementptr inbounds nuw %"class.__gnu_cxx::__normal_iterator", ptr %2, i32 0, i32 0
  store ptr %5, ptr %6, align 8
  %7 = getelementptr inbounds nuw %"class.__gnu_cxx::__normal_iterator", ptr %2, i32 0, i32 0
  %8 = load ptr, ptr %7, align 8
  ret ptr %8
}

; Function Attrs: inlinehint mustprogress nounwind uwtable
define linkonce_odr hidden ptr @_ZSt5beginISt6vectorIPN3ade4EdgeESaIS3_EEEDTcldtfp_5beginEERT_(ptr noundef nonnull align 8 dereferenceable(24) %0) #4 comdat {
  %2 = alloca %"class.__gnu_cxx::__normal_iterator", align 8
  %3 = alloca ptr, align 8
  store ptr %0, ptr %3, align 8, !tbaa !25
  %4 = load ptr, ptr %3, align 8, !tbaa !25
  %5 = call ptr @_ZNSt6vectorIPN3ade4EdgeESaIS2_EE5beginEv(ptr noundef nonnull align 8 dereferenceable(24) %4) #17
  %6 = getelementptr inbounds nuw %"class.__gnu_cxx::__normal_iterator", ptr %2, i32 0, i32 0
  store ptr %5, ptr %6, align 8
  %7 = getelementptr inbounds nuw %"class.__gnu_cxx::__normal_iterator", ptr %2, i32 0, i32 0
  %8 = load ptr, ptr %7, align 8
  ret ptr %8
}

; Function Attrs: mustprogress nounwind uwtable
define linkonce_odr hidden void @_ZN3ade4util5Range8MapRangeINS2_INS1_9IterRangeIN9__gnu_cxx17__normal_iteratorIPPNS_4EdgeESt6vectorIS7_SaIS7_EEEESC_EENS_4Node12HandleMapperEEENSE_13OutEdgeMapperEEC2ISG_SH_EEOT_OT0_(ptr noundef nonnull align 8 dereferenceable(25) %0, ptr noundef nonnull align 8 dereferenceable(17) %1, ptr noundef nonnull align 1 dereferenceable(1) %2) unnamed_addr #0 comdat align 2 {
  %4 = alloca ptr, align 8
  %5 = alloca ptr, align 8
  %6 = alloca ptr, align 8
  store ptr %0, ptr %4, align 8, !tbaa !115
  store ptr %1, ptr %5, align 8, !tbaa !49
  store ptr %2, ptr %6, align 8, !tbaa !61
  %7 = load ptr, ptr %4, align 8
  %8 = getelementptr inbounds nuw %"struct.ade::util::Range::MapRange.49", ptr %7, i32 0, i32 0
  %9 = load ptr, ptr %5, align 8, !tbaa !49
  call void @llvm.memcpy.p0.p0.i64(ptr align 8 %8, ptr align 8 %9, i64 24, i1 false)
  ret void
}

; Function Attrs: mustprogress uwtable
define linkonce_odr hidden void @_ZN3ade4util5Range3mapINS_4Node12HandleMapperENS1_9IterRangeIN9__gnu_cxx17__normal_iteratorIPPNS_4EdgeESt6vectorIS9_SaIS9_EEEESE_EEEENS1_8MapRangeIT0_T_EEOSH_(ptr dead_on_unwind noalias writable sret(%"struct.ade::util::Range::MapRange") align 8 %0, ptr noundef nonnull align 8 dereferenceable(16) %1) #1 comdat {
  %3 = alloca ptr, align 8
  %4 = alloca %"struct.ade::Node::HandleMapper", align 1
  store ptr %1, ptr %3, align 8, !tbaa !45
  %5 = load ptr, ptr %3, align 8, !tbaa !45
  call void @llvm.lifetime.start.p0(i64 1, ptr %4) #17
  call void @_ZN3ade4util5Range8MapRangeINS1_9IterRangeIN9__gnu_cxx17__normal_iteratorIPPNS_4EdgeESt6vectorIS7_SaIS7_EEEESC_EENS_4Node12HandleMapperEEC2ISD_SF_EEOT_OT0_(ptr noundef nonnull align 8 dereferenceable(17) %0, ptr noundef nonnull align 8 dereferenceable(16) %5, ptr noundef nonnull align 1 dereferenceable(1) %4)
  call void @llvm.lifetime.end.p0(i64 1, ptr %4) #17
  ret void
}

; Function Attrs: inlinehint mustprogress nounwind uwtable
define linkonce_odr hidden { ptr, ptr } @_ZN3ade4util5Range7toRangeIRSt6vectorIPNS_4EdgeESaIS5_EEEENS1_9IterRangeIDTclsr3stdE5beginfp_EEDTclsr3stdE3endfp_EEEEOT_(ptr noundef nonnull align 8 dereferenceable(24) %0) #4 comdat {
  %2 = alloca %"struct.ade::util::Range::IterRange", align 8
  %3 = alloca ptr, align 8
  store ptr %0, ptr %3, align 8, !tbaa !25
  %4 = load ptr, ptr %3, align 8, !tbaa !25
  %5 = call ptr @_ZSt5beginISt6vectorIPN3ade4EdgeESaIS3_EEEDTcldtfp_5beginEERT_(ptr noundef nonnull align 8 dereferenceable(24) %4)
  %6 = getelementptr inbounds nuw %"class.__gnu_cxx::__normal_iterator", ptr %2, i32 0, i32 0
  store ptr %5, ptr %6, align 8
  %7 = getelementptr inbounds nuw %"struct.ade::util::Range::IterRange", ptr %2, i32 0, i32 1
  %8 = load ptr, ptr %3, align 8, !tbaa !25
  %9 = call ptr @_ZSt3endISt6vectorIPN3ade4EdgeESaIS3_EEEDTcldtfp_3endEERT_(ptr noundef nonnull align 8 dereferenceable(24) %8)
  %10 = getelementptr inbounds nuw %"class.__gnu_cxx::__normal_iterator", ptr %7, i32 0, i32 0
  store ptr %9, ptr %10, align 8
  %11 = load { ptr, ptr }, ptr %2, align 8
  ret { ptr, ptr } %11
}

; Function Attrs: mustprogress uwtable
define linkonce_odr hidden void @_ZN3ade4util5Range3mapINS_4Node13OutEdgeMapperENS1_8MapRangeINS1_9IterRangeIN9__gnu_cxx17__normal_iteratorIPPNS_4EdgeESt6vectorISA_SaISA_EEEESF_EENS3_12HandleMapperEEEEENS5_IT0_T_EEOSJ_(ptr dead_on_unwind noalias writable sret(%"struct.ade::util::Range::MapRange.49") align 8 %0, ptr noundef nonnull align 8 dereferenceable(17) %1) #1 comdat {
  %3 = alloca ptr, align 8
  %4 = alloca %"struct.ade::Node::OutEdgeMapper", align 1
  store ptr %1, ptr %3, align 8, !tbaa !49
  %5 = load ptr, ptr %3, align 8, !tbaa !49
  call void @llvm.lifetime.start.p0(i64 1, ptr %4) #17
  call void @_ZN3ade4util5Range8MapRangeINS2_INS1_9IterRangeIN9__gnu_cxx17__normal_iteratorIPPNS_4EdgeESt6vectorIS7_SaIS7_EEEESC_EENS_4Node12HandleMapperEEENSE_13OutEdgeMapperEEC2ISG_SH_EEOT_OT0_(ptr noundef nonnull align 8 dereferenceable(25) %0, ptr noundef nonnull align 8 dereferenceable(17) %5, ptr noundef nonnull align 1 dereferenceable(1) %4)
  call void @llvm.lifetime.end.p0(i64 1, ptr %4) #17
  ret void
}

; Function Attrs: mustprogress uwtable
define hidden void @_ZN3ade4Node8outEdgesEv(ptr dead_on_unwind noalias writable sret(%"struct.ade::util::Range::MapRange") align 8 %0, ptr noundef nonnull align 8 dereferenceable(72) %1) #1 align 2 {
  %3 = alloca ptr, align 8
  %4 = alloca %"struct.ade::util::Range::IterRange", align 8
  store ptr %1, ptr %3, align 8, !tbaa !3
  %5 = load ptr, ptr %3, align 8
  call void @llvm.lifetime.start.p0(i64 16, ptr %4) #17
  %6 = getelementptr inbounds nuw %"class.ade::Node", ptr %5, i32 0, i32 3
  %7 = call { ptr, ptr } @_ZN3ade4util5Range7toRangeIRSt6vectorIPNS_4EdgeESaIS5_EEEENS1_9IterRangeIDTclsr3stdE5beginfp_EEDTclsr3stdE3endfp_EEEEOT_(ptr noundef nonnull align 8 dereferenceable(24) %6)
  %8 = getelementptr inbounds nuw { ptr, ptr }, ptr %4, i32 0, i32 0
  %9 = extractvalue { ptr, ptr } %7, 0
  store ptr %9, ptr %8, align 8
  %10 = getelementptr inbounds nuw { ptr, ptr }, ptr %4, i32 0, i32 1
  %11 = extractvalue { ptr, ptr } %7, 1
  store ptr %11, ptr %10, align 8
  call void @_ZN3ade4util5Range3mapINS_4Node12HandleMapperENS1_9IterRangeIN9__gnu_cxx17__normal_iteratorIPPNS_4EdgeESt6vectorIS9_SaIS9_EEEESE_EEEENS1_8MapRangeIT0_T_EEOSH_(ptr dead_on_unwind writable sret(%"struct.ade::util::Range::MapRange") align 8 %0, ptr noundef nonnull align 8 dereferenceable(16) %4)
  call void @llvm.lifetime.end.p0(i64 16, ptr %4) #17
  ret void
}

; Function Attrs: mustprogress uwtable
define hidden void @_ZN3ade4Node8outNodesEv(ptr dead_on_unwind noalias writable sret(%"struct.ade::util::Range::MapRange.49") align 8 %0, ptr noundef nonnull align 8 dereferenceable(72) %1) #1 align 2 {
  %3 = alloca ptr, align 8
  %4 = alloca %"struct.ade::util::Range::MapRange", align 8
  store ptr %1, ptr %3, align 8, !tbaa !3
  %5 = load ptr, ptr %3, align 8
  call void @llvm.lifetime.start.p0(i64 24, ptr %4) #17
  call void @_ZN3ade4Node8outEdgesEv(ptr dead_on_unwind writable sret(%"struct.ade::util::Range::MapRange") align 8 %4, ptr noundef nonnull align 8 dereferenceable(72) %5)
  call void @_ZN3ade4util5Range3mapINS_4Node13OutEdgeMapperENS1_8MapRangeINS1_9IterRangeIN9__gnu_cxx17__normal_iteratorIPPNS_4EdgeESt6vectorISA_SaISA_EEEESF_EENS3_12HandleMapperEEEEENS5_IT0_T_EEOSJ_(ptr dead_on_unwind writable sret(%"struct.ade::util::Range::MapRange.49") align 8 %0, ptr noundef nonnull align 8 dereferenceable(17) %4)
  call void @llvm.lifetime.end.p0(i64 24, ptr %4) #17
  ret void
}